; Function Attrs: mustprogress uwtable
define noundef range(i64 -2147483648, 2147483648) i64 @_Z15fast_rv32i_srliP11processor_t6insn_tm(ptr noundef captures(none) %0, i64 %1, i64 noundef %2) local_unnamed_addr #3 personality ptr @__gxx_personality_v0 {
  %4 = and i64 %1, 33554432
  %.not.not = icmp eq i64 %4, 0
  br i1 %.not.not, label %10, label %5, !prof !3

5:                                                ; preds = %3
  %6 = tail call ptr @__cxa_allocate_exception(i64 32) #15
  %7 = getelementptr inbounds nuw i8, ptr %6, i64 8
  store i64 2, ptr %7, align 8, !tbaa !4
  %8 = getelementptr inbounds nuw i8, ptr %6, i64 16
  store i8 0, ptr %8, align 8, !tbaa !9
  %9 = getelementptr inbounds nuw i8, ptr %6, i64 24
  store i64 %1, ptr %9, align 8, !tbaa !12
  store ptr getelementptr inbounds nuw inrange(-16, 80) (i8, ptr @_ZTV24trap_illegal_instruction, i64 16), ptr %6, align 8, !tbaa !13
  tail call void @__cxa_throw(ptr nonnull %6, ptr nonnull @_ZTI24trap_illegal_instruction, ptr nonnull @_ZN6trap_tD2Ev) #16
  unreachable

10:                                               ; preds = %3
  %11 = lshr i64 %1, 7
  %12 = and i64 %11, 31
  %.not.i = icmp eq i64 %12, 0
  br i1 %.not.i, label %_ZN9regfile_tImLm32ELb1EE5writeEmm.exit, label %13

13:                                               ; preds = %10
  %14 = getelementptr inbounds nuw i8, ptr %0, i64 256
  %15 = lshr i64 %1, 15
  %16 = and i64 %15, 31
  %17 = getelementptr inbounds nuw [32 x i64], ptr %14, i64 0, i64 %16
  %18 = load i64, ptr %17, align 8, !tbaa !15
  %19 = and i64 %18, 4294967295
  %20 = lshr i64 %1, 20
  %21 = and i64 %20, 31
  %22 = lshr i64 %19, %21
  %23 = shl nuw i64 %22, 32
  %24 = ashr exact i64 %23, 32
  %25 = getelementptr inbounds nuw [32 x i64], ptr %14, i64 0, i64 %12
  store i64 %24, ptr %25, align 8, !tbaa !15
  br label %_ZN9regfile_tImLm32ELb1EE5writeEmm.exit

_ZN9regfile_tImLm32ELb1EE5writeEmm.exit:          ; preds = %10, %13
  %26 = shl i64 %2, 32
  %27 = add i64 %26, 17179869184
  %28 = ashr exact i64 %27, 32
  ret i64 %28
}